target datalayout = "e-m:e-p270:32:32-p271:32:32-p272:64:64-i64:64-i128:128-f80:128-n8:16:32:64-S128"
target triple = "x86_64-pc-linux-gnu"

%struct.jpeg_decompress_struct = type { ptr, ptr, ptr, ptr, i32, i32, ptr, i32, i32, i32, i32, i32, i32, i32, double, i32, i32, i32, i32, i32, i32, i32, i32, i32, i32, i32, i32, i32, i32, i32, i32, i32, i32, ptr, i32, i32, i32, i32, i32, ptr, [4 x ptr], [4 x ptr], [4 x ptr], i32, ptr, i32, i32, [16 x i8], [16 x i8], [16 x i8], i32, i32, i8, i8, i8, i16, i16, i32, i8, i32, ptr, i32, i32, i32, i32, ptr, i32, [4 x ptr], i32, i32, i32, [10 x i32], i32, i32, i32, i32, i32, ptr, ptr, ptr, ptr, ptr, ptr, ptr, ptr, ptr, ptr, ptr }

@simd_support = internal thread_local global i32 -1, align 4

; Function Attrs: nounwind uwtable
define void @jsimd_ycc_rgb_convert(ptr noundef %0, ptr noundef %1, i32 noundef %2, ptr noundef %3, i32 noundef %4) #0 {
  %6 = alloca ptr, align 8
  %7 = alloca ptr, align 8
  %8 = alloca i32, align 4
  %9 = alloca ptr, align 8
  %10 = alloca i32, align 4
  %11 = alloca ptr, align 8
  %12 = alloca ptr, align 8
  store ptr %0, ptr %6, align 8, !tbaa !33
  store ptr %1, ptr %7, align 8, !tbaa !12
  store i32 %2, ptr %8, align 4, !tbaa !3
  store ptr %3, ptr %9, align 8, !tbaa !10
  store i32 %4, ptr %10, align 4, !tbaa !3
  call void @llvm.lifetime.start.p0(i64 8, ptr %11) #9
  call void @llvm.lifetime.start.p0(i64 8, ptr %12) #9
  %13 = call align 4 ptr @llvm.threadlocal.address.p0(ptr align 4 @simd_support)
  %14 = load i32, ptr %13, align 4, !tbaa !3
  %15 = icmp eq i32 %14, -1
  br i1 %15, label %16, label %17

16:                                               ; preds = %5
  call void @init_simd()
  br label %17

17:                                               ; preds = %16, %5
  %18 = load ptr, ptr %6, align 8, !tbaa !33
  %19 = getelementptr inbounds nuw %struct.jpeg_decompress_struct, ptr %18, i32 0, i32 11
  %20 = load i32, ptr %19, align 8, !tbaa !35
  switch i32 %20, label %27 [
    i32 6, label %21
    i32 7, label %22
    i32 12, label %22
    i32 8, label %23
    i32 9, label %24
    i32 13, label %24
    i32 10, label %25
    i32 14, label %25
    i32 11, label %26
    i32 15, label %26
  ]

21:                                               ; preds = %17
  store ptr @jsimd_ycc_extrgb_convert_avx2, ptr %11, align 8, !tbaa !31
  store ptr @jsimd_ycc_extrgb_convert_sse2, ptr %12, align 8, !tbaa !31
  br label %28

22:                                               ; preds = %17, %17
  store ptr @jsimd_ycc_extrgbx_convert_avx2, ptr %11, align 8, !tbaa !31
  store ptr @jsimd_ycc_extrgbx_convert_sse2, ptr %12, align 8, !tbaa !31
  br label %28

23:                                               ; preds = %17
  store ptr @jsimd_ycc_extbgr_convert_avx2, ptr %11, align 8, !tbaa !31
  store ptr @jsimd_ycc_extbgr_convert_sse2, ptr %12, align 8, !tbaa !31
  br label %28

24:                                               ; preds = %17, %17
  store ptr @jsimd_ycc_extbgrx_convert_avx2, ptr %11, align 8, !tbaa !31
  store ptr @jsimd_ycc_extbgrx_convert_sse2, ptr %12, align 8, !tbaa !31
  br label %28

25:                                               ; preds = %17, %17
  store ptr @jsimd_ycc_extxbgr_convert_avx2, ptr %11, align 8, !tbaa !31
  store ptr @jsimd_ycc_extxbgr_convert_sse2, ptr %12, align 8, !tbaa !31
  br label %28

26:                                               ; preds = %17, %17
  store ptr @jsimd_ycc_extxrgb_convert_avx2, ptr %11, align 8, !tbaa !31
  store ptr @jsimd_ycc_extxrgb_convert_sse2, ptr %12, align 8, !tbaa !31
  br label %28

27:                                               ; preds = %17
  store ptr @jsimd_ycc_rgb_convert_avx2, ptr %11, align 8, !tbaa !31
  store ptr @jsimd_ycc_rgb_convert_sse2, ptr %12, align 8, !tbaa !31
  br label %28

28:                                               ; preds = %27, %26, %25, %24, %23, %22, %21
  %29 = call align 4 ptr @llvm.threadlocal.address.p0(ptr align 4 @simd_support)
  %30 = load i32, ptr %29, align 4, !tbaa !3
  %31 = and i32 %30, 128
  %32 = icmp ne i32 %31, 0
  br i1 %32, label %33, label %42

33:                                               ; preds = %28
  %34 = load ptr, ptr %11, align 8, !tbaa !31
  %35 = load ptr, ptr %6, align 8, !tbaa !33
  %36 = getelementptr inbounds nuw %struct.jpeg_decompress_struct, ptr %35, i32 0, i32 27
  %37 = load i32, ptr %36, align 8, !tbaa !52
  %38 = load ptr, ptr %7, align 8, !tbaa !12
  %39 = load i32, ptr %8, align 4, !tbaa !3
  %40 = load ptr, ptr %9, align 8, !tbaa !10
  %41 = load i32, ptr %10, align 4, !tbaa !3
  call void %34(i32 noundef %37, ptr noundef %38, i32 noundef %39, ptr noundef %40, i32 noundef %41)
  br label %51

42:                                               ; preds = %28
  %43 = load ptr, ptr %12, align 8, !tbaa !31
  %44 = load ptr, ptr %6, align 8, !tbaa !33
  %45 = getelementptr inbounds nuw %struct.jpeg_decompress_struct, ptr %44, i32 0, i32 27
  %46 = load i32, ptr %45, align 8, !tbaa !52
  %47 = load ptr, ptr %7, align 8, !tbaa !12
  %48 = load i32, ptr %8, align 4, !tbaa !3
  %49 = load ptr, ptr %9, align 8, !tbaa !10
  %50 = load i32, ptr %10, align 4, !tbaa !3
  call void %43(i32 noundef %46, ptr noundef %47, i32 noundef %48, ptr noundef %49, i32 noundef %50)
  br label %51

51:                                               ; preds = %42, %33
  call void @llvm.lifetime.end.p0(i64 8, ptr %12) #9
  call void @llvm.lifetime.end.p0(i64 8, ptr %11) #9
  ret void
}